target datalayout = "e-m:e-p270:32:32-p271:32:32-p272:64:64-i64:64-i128:128-f80:128-n8:16:32:64-S128"
target triple = "x86_64-pc-linux-gnu"

%struct.strbuf = type { i64, i64, ptr }
%struct.strvec = type { ptr, i64, i64 }
%struct.option = type { i32, i32, ptr, ptr, ptr, ptr, i32, ptr, i64, ptr, i64, ptr }
%struct.string_list = type { ptr, i64, i64, i8, ptr }
%struct.remote = type { %struct.hashmap_entry, ptr, i32, i32, ptr, %struct.strvec, %struct.strvec, %struct.refspec, %struct.refspec, i32, i32, i32, i32, i32, ptr, ptr, ptr, ptr, %struct.string_list, i32, ptr }
%struct.hashmap_entry = type { ptr, i32 }
%struct.refspec = type { ptr, i32, i32, i32 }

@.str.2 = private unnamed_addr constant [4 x i8] c"add\00", align 1
@.str.29 = private unnamed_addr constant [17 x i8] c"builtin/remote.c\00", align 1
@.str.32 = private unnamed_addr constant [16 x i8] c"remote.%s.fetch\00", align 1
@the_repository = external global ptr, align 8
@.str.125 = private unnamed_addr constant [11 x i8] c"add branch\00", align 1
@builtin_remote_setbranches_usage = internal constant [3 x ptr] [ptr @.str.127, ptr @.str.128, ptr null], align 16
@.str.126 = private unnamed_addr constant [20 x i8] c"no remote specified\00", align 1
@__const.set_remote_branches.key = private unnamed_addr constant %struct.strbuf { i64 0, i64 0, ptr @strbuf_slopbuf }, align 8
@.str.129 = private unnamed_addr constant [20 x i8] c"No such remote '%s'\00", align 1
@__const.add_branches.refspec = private unnamed_addr constant %struct.strbuf { i64 0, i64 0, ptr @strbuf_slopbuf }, align 8

; Function Attrs: inlinehint nounwind uwtable
define internal i32 @git_config_set_multivar_gently(ptr noundef %0, ptr noundef %1, ptr noundef %2, i32 noundef %3) #4 {
  %5 = alloca ptr, align 8
  %6 = alloca ptr, align 8
  %7 = alloca ptr, align 8
  %8 = alloca i32, align 4
  store ptr %0, ptr %5, align 8, !tbaa !11
  store ptr %1, ptr %6, align 8, !tbaa !11
  store ptr %2, ptr %7, align 8, !tbaa !11
  store i32 %3, ptr %8, align 4, !tbaa !4
  %9 = load ptr, ptr @the_repository, align 8, !tbaa !13
  %10 = load ptr, ptr %5, align 8, !tbaa !11
  %11 = load ptr, ptr %6, align 8, !tbaa !11
  %12 = load ptr, ptr %7, align 8, !tbaa !11
  %13 = load i32, ptr %8, align 4, !tbaa !4
  %14 = call i32 @repo_config_set_multivar_gently(ptr noundef %9, ptr noundef %10, ptr noundef %11, ptr noundef %12, i32 noundef %13)
  ret i32 %14
}

; Function Attrs: nounwind uwtable
define internal void @add_branches(ptr noundef %0, ptr noundef %1, ptr noundef %2) #0 {
  %4 = alloca ptr, align 8
  %5 = alloca ptr, align 8
  %6 = alloca ptr, align 8
  %7 = alloca ptr, align 8
  %8 = alloca i32, align 4
  %9 = alloca %struct.strbuf, align 8
  store ptr %0, ptr %4, align 8, !tbaa !33
  store ptr %1, ptr %5, align 8, !tbaa !8
  store ptr %2, ptr %6, align 8, !tbaa !11
  call void @llvm.lifetime.start.p0(i64 8, ptr %7) #11
  %10 = load ptr, ptr %4, align 8, !tbaa !33
  %11 = getelementptr inbounds nuw %struct.remote, ptr %10, i32 0, i32 1
  %12 = load ptr, ptr %11, align 8, !tbaa !81
  store ptr %12, ptr %7, align 8, !tbaa !11
  call void @llvm.lifetime.start.p0(i64 4, ptr %8) #11
  %13 = load ptr, ptr %4, align 8, !tbaa !33
  %14 = getelementptr inbounds nuw %struct.remote, ptr %13, i32 0, i32 11
  %15 = load i32, ptr %14, align 8, !tbaa !116
  store i32 %15, ptr %8, align 4, !tbaa !4
  call void @llvm.lifetime.start.p0(i64 24, ptr %9) #11
  call void @llvm.memcpy.p0.p0.i64(ptr align 8 %9, ptr align 8 @__const.add_branches.refspec, i64 24, i1 false)
  br label %16

16:                                               ; preds = %26, %3
  %17 = load ptr, ptr %5, align 8, !tbaa !8
  %18 = load ptr, ptr %17, align 8, !tbaa !11
  %19 = icmp ne ptr %18, null
  br i1 %19, label %20, label %29

20:                                               ; preds = %16
  %21 = load ptr, ptr %6, align 8, !tbaa !11
  %22 = load ptr, ptr %5, align 8, !tbaa !8
  %23 = load ptr, ptr %22, align 8, !tbaa !11
  %24 = load ptr, ptr %7, align 8, !tbaa !11
  %25 = load i32, ptr %8, align 4, !tbaa !4
  call void @add_branch(ptr noundef %21, ptr noundef %23, ptr noundef %24, i32 noundef %25, ptr noundef %9)
  br label %26

26:                                               ; preds = %20
  %27 = load ptr, ptr %5, align 8, !tbaa !8
  %28 = getelementptr inbounds nuw ptr, ptr %27, i32 1
  store ptr %28, ptr %5, align 8, !tbaa !8
  br label %16, !llvm.loop !202

29:                                               ; preds = %16
  call void @strbuf_release(ptr noundef %9)
  call void @llvm.lifetime.end.p0(i64 24, ptr %9) #11
  call void @llvm.lifetime.end.p0(i64 4, ptr %8) #11
  call void @llvm.lifetime.end.p0(i64 8, ptr %7) #11
  ret void
}

; Function Attrs: nounwind uwtable
define internal i32 @remove_all_fetch_refspecs(ptr noundef %0) #0 {
  %2 = alloca ptr, align 8
  store ptr %0, ptr %2, align 8, !tbaa !11
  %3 = load ptr, ptr %2, align 8, !tbaa !11
  %4 = call i32 @git_config_set_multivar_gently(ptr noundef %3, ptr noundef null, ptr noundef null, i32 noundef 1)
  ret i32 %4
}

; Function Attrs: nounwind uwtable
define internal i32 @set_remote_branches(ptr noundef %0, ptr noundef %1, i32 noundef %2) #0 {
  %4 = alloca i32, align 4
  %5 = alloca ptr, align 8
  %6 = alloca ptr, align 8
  %7 = alloca i32, align 4
  %8 = alloca %struct.strbuf, align 8
  %9 = alloca ptr, align 8
  %10 = alloca i32, align 4
  store ptr %0, ptr %5, align 8, !tbaa !11
  store ptr %1, ptr %6, align 8, !tbaa !8
  store i32 %2, ptr %7, align 4, !tbaa !4
  call void @llvm.lifetime.start.p0(i64 24, ptr %8) #11
  call void @llvm.memcpy.p0.p0.i64(ptr align 8 %8, ptr align 8 @__const.set_remote_branches.key, i64 24, i1 false)
  call void @llvm.lifetime.start.p0(i64 8, ptr %9) #11
  %11 = load ptr, ptr %5, align 8, !tbaa !11
  call void (ptr, ptr, ...) @strbuf_addf(ptr noundef %8, ptr noundef @.str.32, ptr noundef %11)
  %12 = load ptr, ptr %5, align 8, !tbaa !11
  %13 = call ptr @remote_get(ptr noundef %12)
  store ptr %13, ptr %9, align 8, !tbaa !33
  %14 = load ptr, ptr %9, align 8, !tbaa !33
  %15 = call i32 @remote_is_configured(ptr noundef %14, i32 noundef 1)
  %16 = icmp ne i32 %15, 0
  br i1 %16, label %23, label %17

17:                                               ; preds = %3
  %18 = call ptr @_(ptr noundef @.str.129)
  %19 = load ptr, ptr %5, align 8, !tbaa !11
  %20 = call i32 (ptr, ...) @error(ptr noundef %18, ptr noundef %19)
  %21 = call i32 @const_error()
  %22 = call i32 @common_exit(ptr noundef @.str.29, i32 noundef 1664, i32 noundef 2)
  call void @exit(i32 noundef %22) #13
  unreachable

23:                                               ; preds = %3
  %24 = load i32, ptr %7, align 4, !tbaa !4
  %25 = icmp ne i32 %24, 0
  br i1 %25, label %32, label %26

26:                                               ; preds = %23
  %27 = getelementptr inbounds nuw %struct.strbuf, ptr %8, i32 0, i32 2
  %28 = load ptr, ptr %27, align 8, !tbaa !35
  %29 = call i32 @remove_all_fetch_refspecs(ptr noundef %28)
  %30 = icmp ne i32 %29, 0
  br i1 %30, label %31, label %32

31:                                               ; preds = %26
  call void @strbuf_release(ptr noundef %8)
  store i32 1, ptr %4, align 4
  store i32 1, ptr %10, align 4
  br label %37

32:                                               ; preds = %26, %23
  %33 = load ptr, ptr %9, align 8, !tbaa !33
  %34 = load ptr, ptr %6, align 8, !tbaa !8
  %35 = getelementptr inbounds nuw %struct.strbuf, ptr %8, i32 0, i32 2
  %36 = load ptr, ptr %35, align 8, !tbaa !35
  call void @add_branches(ptr noundef %33, ptr noundef %34, ptr noundef %36)
  call void @strbuf_release(ptr noundef %8)
  store i32 0, ptr %4, align 4
  store i32 1, ptr %10, align 4
  br label %37

37:                                               ; preds = %32, %31
  call void @llvm.lifetime.end.p0(i64 8, ptr %9) #11
  call void @llvm.lifetime.end.p0(i64 24, ptr %8) #11
  %38 = load i32, ptr %4, align 4
  ret i32 %38
}

; Function Attrs: inlinehint nounwind uwtable
define internal i32 @const_error() #4 {
  ret i32 -1
}

; Function Attrs: nounwind uwtable
define internal i32 @set_branches(i32 noundef %0, ptr noundef %1, ptr noundef %2, ptr noundef %3) #0 {
  %5 = alloca i32, align 4
  %6 = alloca ptr, align 8
  %7 = alloca ptr, align 8
  %8 = alloca ptr, align 8
  %9 = alloca i32, align 4
  %10 = alloca [2 x %struct.option], align 16
  store i32 %0, ptr %5, align 4, !tbaa !4
  store ptr %1, ptr %6, align 8, !tbaa !8
  store ptr %2, ptr %7, align 8, !tbaa !11
  store ptr %3, ptr %8, align 8, !tbaa !13
  call void @llvm.lifetime.start.p0(i64 4, ptr %9) #11
  store i32 0, ptr %9, align 4, !tbaa !4
  call void @llvm.lifetime.start.p0(i64 176, ptr %10) #11
  call void @llvm.memset.p0.i64(ptr align 16 %10, i8 0, i64 176, i1 false)
  %11 = getelementptr inbounds nuw %struct.option, ptr %10, i32 0, i32 0
  store i32 9, ptr %11, align 8, !tbaa !16
  %12 = getelementptr inbounds nuw %struct.option, ptr %10, i32 0, i32 2
  store ptr @.str.2, ptr %12, align 8, !tbaa !20
  %13 = getelementptr inbounds nuw %struct.option, ptr %10, i32 0, i32 3
  store ptr %9, ptr %13, align 8, !tbaa !21
  %14 = getelementptr inbounds nuw %struct.option, ptr %10, i32 0, i32 5
  store ptr @.str.125, ptr %14, align 8, !tbaa !23
  %15 = getelementptr inbounds nuw %struct.option, ptr %10, i32 0, i32 6
  store i32 2, ptr %15, align 8, !tbaa !24
  %16 = getelementptr inbounds nuw %struct.option, ptr %10, i32 0, i32 8
  store i64 1, ptr %16, align 8, !tbaa !26
  %17 = getelementptr inbounds %struct.option, ptr %10, i64 1
  %18 = getelementptr inbounds nuw %struct.option, ptr %17, i32 0, i32 0
  store i32 0, ptr %18, align 8, !tbaa !16
  %19 = load i32, ptr %5, align 4, !tbaa !4
  %20 = load ptr, ptr %6, align 8, !tbaa !8
  %21 = load ptr, ptr %7, align 8, !tbaa !11
  %22 = getelementptr inbounds [2 x %struct.option], ptr %10, i64 0, i64 0
  %23 = call i32 @parse_options(i32 noundef %19, ptr noundef %20, ptr noundef %21, ptr noundef %22, ptr noundef @builtin_remote_setbranches_usage, i32 noundef 0)
  store i32 %23, ptr %5, align 4, !tbaa !4
  %24 = load i32, ptr %5, align 4, !tbaa !4
  %25 = icmp eq i32 %24, 0
  br i1 %25, label %26, label %31

26:                                               ; preds = %4
  %27 = call ptr @_(ptr noundef @.str.126)
  %28 = call i32 (ptr, ...) @error(ptr noundef %27)
  %29 = call i32 @const_error()
  %30 = getelementptr inbounds [2 x %struct.option], ptr %10, i64 0, i64 0
  call void @usage_with_options(ptr noundef @builtin_remote_setbranches_usage, ptr noundef %30) #12
  unreachable

31:                                               ; preds = %4
  %32 = load ptr, ptr %6, align 8, !tbaa !8
  %33 = load i32, ptr %5, align 4, !tbaa !4
  %34 = sext i32 %33 to i64
  %35 = getelementptr inbounds ptr, ptr %32, i64 %34
  store ptr null, ptr %35, align 8, !tbaa !11
  %36 = load ptr, ptr %6, align 8, !tbaa !8
  %37 = getelementptr inbounds ptr, ptr %36, i64 0
  %38 = load ptr, ptr %37, align 8, !tbaa !11
  %39 = load ptr, ptr %6, align 8, !tbaa !8
  %40 = getelementptr inbounds ptr, ptr %39, i64 1
  %41 = load i32, ptr %9, align 4, !tbaa !4
  %42 = call i32 @set_remote_branches(ptr noundef %38, ptr noundef %40, i32 noundef %41)
  call void @llvm.lifetime.end.p0(i64 176, ptr %10) #11
  call void @llvm.lifetime.end.p0(i64 4, ptr %9) #11
  ret i32 %42
}