; Function Attrs: nounwind uwtable
define internal range(i32 0, 2) i32 @set_branches(i32 noundef %0, ptr noundef %1, ptr noundef %2, ptr readnone captures(none) %3) #0 {
  %5 = alloca %struct.strbuf, align 8
  %6 = alloca %struct.strbuf, align 8
  %7 = alloca i32, align 4
  %8 = alloca [2 x %struct.option], align 16
  call void @llvm.lifetime.start.p0(i64 4, ptr nonnull %7) #19
  store i32 0, ptr %7, align 4, !tbaa !21
  call void @llvm.lifetime.start.p0(i64 176, ptr nonnull %8) #19
  call void @llvm.memset.p0.i64(ptr noundef nonnull align 16 dereferenceable(176) %8, i8 0, i64 176, i1 false)
  store i32 9, ptr %8, align 16, !tbaa !8
  %9 = getelementptr inbounds nuw i8, ptr %8, i64 8
  store ptr @.str.2, ptr %9, align 8, !tbaa !14
  %10 = getelementptr inbounds nuw i8, ptr %8, i64 16
  store ptr %7, ptr %10, align 16, !tbaa !15
  %11 = getelementptr inbounds nuw i8, ptr %8, i64 32
  store ptr @.str.125, ptr %11, align 16, !tbaa !17
  %12 = getelementptr inbounds nuw i8, ptr %8, i64 40
  store i32 2, ptr %12, align 8, !tbaa !18
  %13 = getelementptr inbounds nuw i8, ptr %8, i64 56
  store i64 1, ptr %13, align 8, !tbaa !23
  %14 = call i32 @parse_options(i32 noundef %0, ptr noundef %1, ptr noundef %2, ptr noundef nonnull %8, ptr noundef nonnull @builtin_remote_setbranches_usage, i32 noundef 0) #19
  %15 = icmp eq i32 %14, 0
  br i1 %15, label %16, label %19

16:                                               ; preds = %4
  %17 = call fastcc ptr @_(ptr noundef nonnull @.str.126)
  %18 = call i32 (ptr, ...) @error(ptr noundef %17) #19
  call void @usage_with_options(ptr noundef nonnull @builtin_remote_setbranches_usage, ptr noundef nonnull %8) #20
  unreachable

19:                                               ; preds = %4
  %20 = sext i32 %14 to i64
  %21 = getelementptr inbounds ptr, ptr %1, i64 %20
  store ptr null, ptr %21, align 8, !tbaa !20
  %22 = load ptr, ptr %1, align 8, !tbaa !20
  %23 = getelementptr inbounds nuw i8, ptr %1, i64 8
  %24 = load i32, ptr %7, align 4, !tbaa !21
  call void @llvm.lifetime.start.p0(i64 24, ptr nonnull %6) #19
  call void @llvm.memcpy.p0.p0.i64(ptr noundef nonnull align 8 dereferenceable(24) %6, ptr noundef nonnull align 8 dereferenceable(24) @__const.get_one_entry.promisor_config, i64 24, i1 false)
  call void (ptr, ptr, ...) @strbuf_addf(ptr noundef nonnull %6, ptr noundef nonnull @.str.32, ptr noundef %22) #19
  %25 = call ptr @remote_get(ptr noundef %22) #19
  %26 = call i32 @remote_is_configured(ptr noundef %25, i32 noundef 1) #19
  %.not.i = icmp eq i32 %26, 0
  br i1 %.not.i, label %27, label %31

27:                                               ; preds = %19
  %28 = call fastcc ptr @_(ptr noundef nonnull @.str.129)
  %29 = call i32 (ptr, ...) @error(ptr noundef %28, ptr noundef %22) #19
  %30 = call i32 @common_exit(ptr noundef nonnull @.str.29, i32 noundef 1664, i32 noundef 2) #19
  call void @exit(i32 noundef %30) #20
  unreachable

31:                                               ; preds = %19
  %.not7.i = icmp eq i32 %24, 0
  br i1 %.not7.i, label %32, label %37

32:                                               ; preds = %31
  %33 = getelementptr inbounds nuw i8, ptr %6, i64 16
  %34 = load ptr, ptr %33, align 8, !tbaa !24
  %35 = load ptr, ptr @the_repository, align 8, !tbaa !26
  %36 = call i32 @repo_config_set_multivar_gently(ptr noundef %35, ptr noundef %34, ptr noundef null, ptr noundef null, i32 noundef 1) #19
  %.not8.i = icmp eq i32 %36, 0
  br i1 %.not8.i, label %37, label %set_remote_branches.exit

37:                                               ; preds = %32, %31
  %38 = getelementptr inbounds nuw i8, ptr %6, i64 16
  %39 = load ptr, ptr %38, align 8, !tbaa !24
  %40 = getelementptr i8, ptr %25, i64 16
  %.val.i = load ptr, ptr %40, align 8, !tbaa !54
  %41 = getelementptr i8, ptr %25, i64 144
  %.val9.i = load i32, ptr %41, align 8, !tbaa !100
  call void @llvm.lifetime.start.p0(i64 24, ptr nonnull %5) #19
  call void @llvm.memcpy.p0.p0.i64(ptr noundef nonnull align 8 dereferenceable(24) %5, ptr noundef nonnull align 8 dereferenceable(24) @__const.get_one_entry.promisor_config, i64 24, i1 false)
  %42 = load ptr, ptr %23, align 8, !tbaa !20
  %.not1.i.i = icmp eq ptr %42, null
  br i1 %.not1.i.i, label %add_branches.exit.i, label %.lr.ph.i.i

.lr.ph.i.i:                                       ; preds = %37, %.lr.ph.i.i
  %43 = phi ptr [ %45, %.lr.ph.i.i ], [ %42, %37 ]
  %.02.i.i = phi ptr [ %44, %.lr.ph.i.i ], [ %23, %37 ]
  call fastcc void @add_branch(ptr noundef %39, ptr noundef nonnull %43, ptr noundef %.val.i, i32 noundef %.val9.i, ptr noundef %5)
  %44 = getelementptr inbounds nuw i8, ptr %.02.i.i, i64 8
  %45 = load ptr, ptr %44, align 8, !tbaa !20
  %.not.i.i = icmp eq ptr %45, null
  br i1 %.not.i.i, label %add_branches.exit.i, label %.lr.ph.i.i, !llvm.loop !101

add_branches.exit.i:                              ; preds = %.lr.ph.i.i, %37
  call void @strbuf_release(ptr noundef nonnull %5) #19
  call void @llvm.lifetime.end.p0(i64 24, ptr nonnull %5) #19
  br label %set_remote_branches.exit

set_remote_branches.exit:                         ; preds = %32, %add_branches.exit.i
  %.0.i = phi i32 [ 0, %add_branches.exit.i ], [ 1, %32 ]
  call void @strbuf_release(ptr noundef nonnull %6) #19
  call void @llvm.lifetime.end.p0(i64 24, ptr nonnull %6) #19
  call void @llvm.lifetime.end.p0(i64 176, ptr nonnull %8) #19
  call void @llvm.lifetime.end.p0(i64 4, ptr nonnull %7) #19
  ret i32 %.0.i
}